target datalayout = "e-m:e-p270:32:32-p271:32:32-p272:64:64-i64:64-i128:128-f80:128-n8:16:32:64-S128"
target triple = "x86_64-pc-linux-gnu"

%struct.TValue = type { %union.Value, i8 }
%union.Value = type { ptr }
%struct.GCObject = type { ptr, i8, i8 }
%struct.Udata = type { ptr, i8, i8, i16, i64, ptr, ptr, [1 x %union.UValue] }
%union.UValue = type { %struct.TValue }
%struct.LClosure = type { ptr, i8, i8, i8, ptr, ptr, [1 x ptr] }
%struct.CClosure = type { ptr, i8, i8, i8, ptr, ptr, [1 x %struct.TValue] }
%struct.TString = type { ptr, i8, i8, i8, i8, i32, %union.anon.3, ptr, ptr, ptr }
%union.anon.3 = type { i64 }

; Function Attrs: nounwind uwtable
define internal i64 @objsize(ptr noundef %0) #0 {
  %2 = alloca ptr, align 8
  %3 = alloca i64, align 8
  %4 = alloca ptr, align 8
  %5 = alloca ptr, align 8
  %6 = alloca ptr, align 8
  %7 = alloca ptr, align 8
  %8 = alloca ptr, align 8
  store ptr %0, ptr %2, align 8, !tbaa !9
  call void @llvm.lifetime.start.p0(i64 8, ptr %3) #6
  %9 = load ptr, ptr %2, align 8, !tbaa !9
  %10 = getelementptr inbounds nuw %struct.GCObject, ptr %9, i32 0, i32 1
  %11 = load i8, ptr %10, align 8, !tbaa !35
  %12 = zext i8 %11 to i32
  switch i32 %12, label %82 [
    i32 5, label %13
    i32 6, label %16
    i32 38, label %25
    i32 7, label %34
    i32 10, label %55
    i32 8, label %58
    i32 4, label %61
    i32 20, label %71
    i32 9, label %81
  ]

13:                                               ; preds = %1
  %14 = load ptr, ptr %2, align 8, !tbaa !9
  %15 = call i64 @luaH_size(ptr noundef %14)
  store i64 %15, ptr %3, align 8, !tbaa !56
  br label %83

16:                                               ; preds = %1
  call void @llvm.lifetime.start.p0(i64 8, ptr %4) #6
  %17 = load ptr, ptr %2, align 8, !tbaa !9
  store ptr %17, ptr %4, align 8, !tbaa !79
  %18 = load ptr, ptr %4, align 8, !tbaa !79
  %19 = getelementptr inbounds nuw %struct.LClosure, ptr %18, i32 0, i32 3
  %20 = load i8, ptr %19, align 2, !tbaa !81
  %21 = zext i8 %20 to i32
  %22 = zext i32 %21 to i64
  %23 = mul i64 8, %22
  %24 = add i64 32, %23
  store i64 %24, ptr %3, align 8, !tbaa !56
  call void @llvm.lifetime.end.p0(i64 8, ptr %4) #6
  br label %83

25:                                               ; preds = %1
  call void @llvm.lifetime.start.p0(i64 8, ptr %5) #6
  %26 = load ptr, ptr %2, align 8, !tbaa !9
  store ptr %26, ptr %5, align 8, !tbaa !84
  %27 = load ptr, ptr %5, align 8, !tbaa !84
  %28 = getelementptr inbounds nuw %struct.CClosure, ptr %27, i32 0, i32 3
  %29 = load i8, ptr %28, align 2, !tbaa !86
  %30 = zext i8 %29 to i32
  %31 = zext i32 %30 to i64
  %32 = mul i64 16, %31
  %33 = add i64 32, %32
  store i64 %33, ptr %3, align 8, !tbaa !56
  call void @llvm.lifetime.end.p0(i64 8, ptr %5) #6
  br label %83

34:                                               ; preds = %1
  call void @llvm.lifetime.start.p0(i64 8, ptr %6) #6
  %35 = load ptr, ptr %2, align 8, !tbaa !9
  store ptr %35, ptr %6, align 8, !tbaa !41
  %36 = load ptr, ptr %6, align 8, !tbaa !41
  %37 = getelementptr inbounds nuw %struct.Udata, ptr %36, i32 0, i32 3
  %38 = load i16, ptr %37, align 2, !tbaa !43
  %39 = zext i16 %38 to i32
  %40 = icmp eq i32 %39, 0
  br i1 %40, label %41, label %42

41:                                               ; preds = %34
  br label %49

42:                                               ; preds = %34
  %43 = load ptr, ptr %6, align 8, !tbaa !41
  %44 = getelementptr inbounds nuw %struct.Udata, ptr %43, i32 0, i32 3
  %45 = load i16, ptr %44, align 2, !tbaa !43
  %46 = zext i16 %45 to i64
  %47 = mul i64 16, %46
  %48 = add i64 40, %47
  br label %49

49:                                               ; preds = %42, %41
  %50 = phi i64 [ 32, %41 ], [ %48, %42 ]
  %51 = load ptr, ptr %6, align 8, !tbaa !41
  %52 = getelementptr inbounds nuw %struct.Udata, ptr %51, i32 0, i32 4
  %53 = load i64, ptr %52, align 8, !tbaa !88
  %54 = add i64 %50, %53
  store i64 %54, ptr %3, align 8, !tbaa !56
  call void @llvm.lifetime.end.p0(i64 8, ptr %6) #6
  br label %83

55:                                               ; preds = %1
  %56 = load ptr, ptr %2, align 8, !tbaa !9
  %57 = call i64 @luaF_protosize(ptr noundef %56)
  store i64 %57, ptr %3, align 8, !tbaa !56
  br label %83

58:                                               ; preds = %1
  %59 = load ptr, ptr %2, align 8, !tbaa !9
  %60 = call i64 @luaE_threadsize(ptr noundef %59)
  store i64 %60, ptr %3, align 8, !tbaa !56
  br label %83

61:                                               ; preds = %1
  call void @llvm.lifetime.start.p0(i64 8, ptr %7) #6
  %62 = load ptr, ptr %2, align 8, !tbaa !9
  store ptr %62, ptr %7, align 8, !tbaa !61
  %63 = load ptr, ptr %7, align 8, !tbaa !61
  %64 = getelementptr inbounds nuw %struct.TString, ptr %63, i32 0, i32 4
  %65 = load i8, ptr %64, align 1, !tbaa !89
  %66 = sext i8 %65 to i32
  %67 = add i32 %66, 1
  %68 = zext i32 %67 to i64
  %69 = mul i64 %68, 1
  %70 = add i64 24, %69
  store i64 %70, ptr %3, align 8, !tbaa !56
  call void @llvm.lifetime.end.p0(i64 8, ptr %7) #6
  br label %83

71:                                               ; preds = %1
  call void @llvm.lifetime.start.p0(i64 8, ptr %8) #6
  %72 = load ptr, ptr %2, align 8, !tbaa !9
  store ptr %72, ptr %8, align 8, !tbaa !61
  %73 = load ptr, ptr %8, align 8, !tbaa !61
  %74 = getelementptr inbounds nuw %struct.TString, ptr %73, i32 0, i32 6
  %75 = load i64, ptr %74, align 8, !tbaa !37
  %76 = load ptr, ptr %8, align 8, !tbaa !61
  %77 = getelementptr inbounds nuw %struct.TString, ptr %76, i32 0, i32 4
  %78 = load i8, ptr %77, align 1, !tbaa !89
  %79 = sext i8 %78 to i32
  %80 = call i64 @luaS_sizelngstr(i64 noundef %75, i32 noundef %79)
  store i64 %80, ptr %3, align 8, !tbaa !56
  call void @llvm.lifetime.end.p0(i64 8, ptr %8) #6
  br label %83

81:                                               ; preds = %1
  store i64 40, ptr %3, align 8, !tbaa !56
  br label %83

82:                                               ; preds = %1
  store i64 0, ptr %3, align 8, !tbaa !56
  br label %83

83:                                               ; preds = %82, %81, %71, %61, %58, %55, %49, %25, %16, %13
  %84 = load i64, ptr %3, align 8, !tbaa !56
  call void @llvm.lifetime.end.p0(i64 8, ptr %3) #6
  ret i64 %84
}