; Function Attrs: nounwind uwtable
define internal fastcc i64 @objsize(ptr noundef %0) unnamed_addr #0 {
  %2 = getelementptr inbounds nuw i8, ptr %0, i64 8
  %3 = load i8, ptr %2, align 8, !tbaa !32
  switch i8 %3, label %47 [
    i8 5, label %4
    i8 6, label %6
    i8 38, label %12
    i8 7, label %18
    i8 10, label %29
    i8 8, label %31
    i8 4, label %33
    i8 20, label %40
    i8 9, label %48
  ]

4:                                                ; preds = %1
  %5 = tail call i64 @luaH_size(ptr noundef nonnull %0) #8
  br label %48

6:                                                ; preds = %1
  %7 = getelementptr inbounds nuw i8, ptr %0, i64 10
  %8 = load i8, ptr %7, align 2, !tbaa !75
  %9 = zext i8 %8 to i64
  %10 = shl nuw nsw i64 %9, 3
  %11 = add nuw nsw i64 %10, 32
  br label %48

12:                                               ; preds = %1
  %13 = getelementptr inbounds nuw i8, ptr %0, i64 10
  %14 = load i8, ptr %13, align 2, !tbaa !78
  %15 = zext i8 %14 to i64
  %16 = shl nuw nsw i64 %15, 4
  %17 = add nuw nsw i64 %16, 32
  br label %48

18:                                               ; preds = %1
  %19 = getelementptr inbounds nuw i8, ptr %0, i64 10
  %20 = load i16, ptr %19, align 2, !tbaa !37
  %21 = icmp eq i16 %20, 0
  %22 = zext i16 %20 to i64
  %23 = shl nuw nsw i64 %22, 4
  %24 = add nuw nsw i64 %23, 40
  %25 = select i1 %21, i64 32, i64 %24
  %26 = getelementptr inbounds nuw i8, ptr %0, i64 16
  %27 = load i64, ptr %26, align 8, !tbaa !80
  %28 = add i64 %25, %27
  br label %48

29:                                               ; preds = %1
  %30 = tail call i64 @luaF_protosize(ptr noundef nonnull %0) #8
  br label %48

31:                                               ; preds = %1
  %32 = tail call i64 @luaE_threadsize(ptr noundef nonnull %0) #8
  br label %48

33:                                               ; preds = %1
  %34 = getelementptr inbounds nuw i8, ptr %0, i64 11
  %35 = load i8, ptr %34, align 1, !tbaa !81
  %36 = sext i8 %35 to i64
  %37 = add nsw i64 %36, 1
  %38 = and i64 %37, 4294967295
  %39 = add nuw nsw i64 %38, 24
  br label %48

40:                                               ; preds = %1
  %41 = getelementptr inbounds nuw i8, ptr %0, i64 16
  %42 = load i64, ptr %41, align 8, !tbaa !33
  %43 = getelementptr inbounds nuw i8, ptr %0, i64 11
  %44 = load i8, ptr %43, align 1, !tbaa !81
  %45 = sext i8 %44 to i32
  %46 = tail call i64 @luaS_sizelngstr(i64 noundef %42, i32 noundef %45) #8
  br label %48

47:                                               ; preds = %1
  br label %48

48:                                               ; preds = %1, %47, %40, %33, %31, %29, %18, %12, %6, %4
  %.0 = phi i64 [ 0, %47 ], [ %46, %40 ], [ %39, %33 ], [ %32, %31 ], [ %30, %29 ], [ %28, %18 ], [ %17, %12 ], [ %11, %6 ], [ %5, %4 ], [ 40, %1 ]
  ret i64 %.0
}